target datalayout = "e-m:e-p270:32:32-p271:32:32-p272:64:64-i64:64-i128:128-f80:128-n8:16:32:64-S128"
target triple = "x86_64-pc-linux-gnu"

; Function Attrs: nounwind uwtable
define i32 @OPENSSL_strcasecmp(ptr noundef %0, ptr noundef %1) #0 {
  %3 = alloca i32, align 4
  %4 = alloca ptr, align 8
  %5 = alloca ptr, align 8
  %6 = alloca i32, align 4
  %7 = alloca i32, align 4
  store ptr %0, ptr %4, align 8, !tbaa !3
  store ptr %1, ptr %5, align 8, !tbaa !3
  call void @llvm.lifetime.start.p0(i64 4, ptr %6) #8
  br label %8

8:                                                ; preds = %27, %2
  %9 = load ptr, ptr %4, align 8, !tbaa !3
  %10 = load i8, ptr %9, align 1, !tbaa !12
  %11 = sext i8 %10 to i32
  %12 = call i32 @ossl_tolower(i32 noundef %11)
  %13 = load ptr, ptr %5, align 8, !tbaa !3
  %14 = getelementptr inbounds nuw i8, ptr %13, i32 1
  store ptr %14, ptr %5, align 8, !tbaa !3
  %15 = load i8, ptr %13, align 1, !tbaa !12
  %16 = sext i8 %15 to i32
  %17 = call i32 @ossl_tolower(i32 noundef %16)
  %18 = sub nsw i32 %12, %17
  store i32 %18, ptr %6, align 4, !tbaa !8
  %19 = icmp eq i32 %18, 0
  br i1 %19, label %20, label %28

20:                                               ; preds = %8
  %21 = load ptr, ptr %4, align 8, !tbaa !3
  %22 = getelementptr inbounds nuw i8, ptr %21, i32 1
  store ptr %22, ptr %4, align 8, !tbaa !3
  %23 = load i8, ptr %21, align 1, !tbaa !12
  %24 = sext i8 %23 to i32
  %25 = icmp eq i32 %24, 0
  br i1 %25, label %26, label %27

26:                                               ; preds = %20
  store i32 0, ptr %3, align 4
  store i32 1, ptr %7, align 4
  br label %30

27:                                               ; preds = %20
  br label %8, !llvm.loop !24

28:                                               ; preds = %8
  %29 = load i32, ptr %6, align 4, !tbaa !8
  store i32 %29, ptr %3, align 4
  store i32 1, ptr %7, align 4
  br label %30

30:                                               ; preds = %28, %26
  call void @llvm.lifetime.end.p0(i64 4, ptr %6) #8
  %31 = load i32, ptr %3, align 4
  ret i32 %31
}