; Function Attrs: nounwind uwtable
define i32 @OPENSSL_strcasecmp(ptr noundef readonly captures(none) %0, ptr noundef readonly captures(none) %1) local_unnamed_addr #0 {
  br label %3

3:                                                ; preds = %11, %2
  %.05 = phi ptr [ %0, %2 ], [ %13, %11 ]
  %.04 = phi ptr [ %1, %2 ], [ %12, %11 ]
  %4 = load i8, ptr %.05, align 1, !tbaa !3
  %5 = sext i8 %4 to i32
  %6 = tail call i32 @ossl_tolower(i32 noundef %5) #16
  %7 = load i8, ptr %.04, align 1, !tbaa !3
  %8 = sext i8 %7 to i32
  %9 = tail call i32 @ossl_tolower(i32 noundef %8) #16
  %10 = icmp eq i32 %6, %9
  br i1 %10, label %11, label %16

11:                                               ; preds = %3
  %12 = getelementptr inbounds nuw i8, ptr %.04, i64 1
  %13 = getelementptr inbounds nuw i8, ptr %.05, i64 1
  %14 = load i8, ptr %.05, align 1, !tbaa !3
  %15 = icmp eq i8 %14, 0
  br i1 %15, label %16, label %3, !llvm.loop !19

16:                                               ; preds = %3, %11
  %.lcssa = phi i32 [ %9, %3 ], [ %6, %11 ]
  %17 = sub nsw i32 %6, %.lcssa
  ret i32 %17
}